; Function Attrs: mustprogress uwtable
define void @_ZN3gmx16EnforcedRotationC2Ev(ptr noundef nonnull writeonly align 8 captures(none) dereferenceable(8) initializes((0, 8)) %0) unnamed_addr #9 align 2 personality ptr @__gxx_personality_v0 {
  %2 = tail call noalias noundef nonnull dereferenceable(128) ptr @_Znwm(i64 noundef 128) #29
  store ptr null, ptr %2, align 8, !tbaa !34
  %3 = getelementptr inbounds nuw i8, ptr %2, i64 16
  %4 = getelementptr inbounds nuw i8, ptr %2, i64 56
  %5 = getelementptr inbounds nuw i8, ptr %2, i64 104
  tail call void @llvm.memset.p0.i64(ptr noundef nonnull align 8 dereferenceable(24) %5, i8 0, i64 24, i1 false)
  tail call void @llvm.memset.p0.i64(ptr noundef nonnull align 8 dereferenceable(36) %3, i8 0, i64 36, i1 false)
  tail call void @llvm.memset.p0.i64(ptr noundef nonnull align 8 dereferenceable(46) %4, i8 0, i64 46, i1 false)
  store ptr %2, ptr %0, align 8, !tbaa !35
  ret void
}